(dp1
S'tj_server'
p2
ccopy_reg
_reconstructor
p3
(ctwisted.plugin
CachedDropin
p4
c__builtin__
object
p5
NtRp6
(dp7
S'moduleName'
p8
S'twisted.plugins.tj_server'
p9
sS'description'
p10
S"\ntwistd plugin support\n\nThis module adds a 'tjbot' server type to the twistd service list.\n"
p11
sS'plugins'
p12
(lp13
g3
(ctwisted.plugin
CachedPlugin
p14
g5
NtRp15
(dp16
S'provided'
p17
(lp18
ctwisted.application.service
IServiceMaker
p19
actwisted.plugin
IPlugin
p20
asS'dropin'
p21
g6
sS'name'
p22
S'botServer'
p23
sg10
S'\n\tThe TJ bot server startup class.\n\t'
p24
sbasbs.